target datalayout = "e-m:e-p270:32:32-p271:32:32-p272:64:64-i64:64-i128:128-f80:128-n8:16:32:64-S128"
target triple = "x86_64-unknown-linux-gnu"

%"class.std::__cxx11::basic_string" = type { %"struct.std::__cxx11::basic_string<char>::_Alloc_hider", i64, %union.anon }
%"struct.std::__cxx11::basic_string<char>::_Alloc_hider" = type { ptr }
%union.anon = type { i64, [8 x i8] }
%"class.rocksdb::FSWritableFile.base" = type <{ ptr, i64, i64, i32, i32, i8 }>
%"class.rocksdb::FSWritableFile" = type <{ ptr, i64, i64, i32, i32, i8, [7 x i8] }>
%"class.rocksdb::PosixWritableFile" = type <{ %"class.rocksdb::FSWritableFile.base", [7 x i8], %"class.std::__cxx11::basic_string", i8, [3 x i8], i32, i64, i64, i8, i8, i8, [5 x i8] }>

; Function Attrs: mustprogress uwtable
define void @_ZN7rocksdb17PosixWritableFile20SetWriteLifeTimeHintENS_3Env17WriteLifeTimeHintE(ptr noundef nonnull align 8 dereferenceable(99) %this, i32 noundef %hint) unnamed_addr #0 align 2 {
entry:
  %this.addr = alloca ptr, align 8
  %hint.addr = alloca i32, align 4
  store ptr %this, ptr %this.addr, align 8
  store i32 %hint, ptr %hint.addr, align 4
  %this1 = load ptr, ptr %this.addr, align 8
  %0 = load i32, ptr %hint.addr, align 4
  %write_hint_ = getelementptr inbounds %"class.rocksdb::FSWritableFile", ptr %this1, i32 0, i32 4
  %1 = load i32, ptr %write_hint_, align 4
  %cmp = icmp eq i32 %0, %1
  br i1 %cmp, label %if.then, label %if.end

if.then:                                          ; preds = %entry
  br label %if.end5

if.end:                                           ; preds = %entry
  %fd_ = getelementptr inbounds %"class.rocksdb::PosixWritableFile", ptr %this1, i32 0, i32 5
  %2 = load i32, ptr %fd_, align 4
  %call = call i32 (i32, i32, ...) @fcntl(i32 noundef %2, i32 noundef 1036, ptr noundef %hint.addr)
  %cmp2 = icmp eq i32 %call, 0
  br i1 %cmp2, label %if.then3, label %if.end5

if.then3:                                         ; preds = %if.end
  %3 = load i32, ptr %hint.addr, align 4
  %write_hint_4 = getelementptr inbounds %"class.rocksdb::FSWritableFile", ptr %this1, i32 0, i32 4
  store i32 %3, ptr %write_hint_4, align 4
  br label %if.end5

if.end5:                                          ; preds = %if.then3, %if.end, %if.then
  ret void
}