; Function Attrs: mustprogress uwtable
define void @_ZN7rocksdb17PosixWritableFile20SetWriteLifeTimeHintENS_3Env17WriteLifeTimeHintE(ptr nocapture noundef nonnull align 8 dereferenceable(99) %this, i32 noundef %hint) unnamed_addr #0 align 2 {
entry:
  %hint.addr = alloca i32, align 4
  store i32 %hint, ptr %hint.addr, align 4
  %write_hint_ = getelementptr inbounds i8, ptr %this, i64 28
  %0 = load i32, ptr %write_hint_, align 4
  %cmp = icmp eq i32 %0, %hint
  br i1 %cmp, label %if.end5, label %if.end

if.end:                                           ; preds = %entry
  %fd_ = getelementptr inbounds i8, ptr %this, i64 76
  %1 = load i32, ptr %fd_, align 4
  %call = call i32 (i32, i32, ...) @fcntl(i32 noundef %1, i32 noundef 1036, ptr noundef nonnull %hint.addr)
  %cmp2 = icmp eq i32 %call, 0
  br i1 %cmp2, label %if.then3, label %if.end5

if.then3:                                         ; preds = %if.end
  %2 = load i32, ptr %hint.addr, align 4
  store i32 %2, ptr %write_hint_, align 4
  br label %if.end5

if.end5:                                          ; preds = %entry, %if.then3, %if.end
  ret void
}